; Function Attrs: nounwind sspstrong uwtable
define internal noundef i64 @inject_op_i(i64 %0, i64 noundef %1, i32 noundef %2, ptr noundef %3, i64 %4) #0 {
  %6 = alloca i64, align 8
  %7 = alloca [2 x i64], align 16
  %8 = inttoptr i64 %1 to ptr
  switch i32 %2, label %11 [
    i32 0, label %rb_enum_values_pack.exit
    i32 1, label %9
  ]

9:                                                ; preds = %5
  %10 = load i64, ptr %3, align 8, !tbaa !7
  br label %rb_enum_values_pack.exit

11:                                               ; preds = %5
  %12 = sext i32 %2 to i64
  %13 = tail call i64 @rb_ary_new_from_values(i64 noundef %12, ptr noundef %3) #14
  br label %rb_enum_values_pack.exit

rb_enum_values_pack.exit:                         ; preds = %5, %9, %11
  %.0.i = phi i64 [ %10, %9 ], [ %13, %11 ], [ 4, %5 ]
  store i64 %.0.i, ptr %6, align 8, !tbaa !7
  %14 = getelementptr inbounds nuw i8, ptr %8, i64 16
  %15 = load i64, ptr %14, align 8, !tbaa !60
  %16 = icmp eq i64 %15, 36
  br i1 %16, label %17, label %23

17:                                               ; preds = %rb_enum_values_pack.exit
  store i64 %.0.i, ptr %14, align 8, !tbaa !7
  %18 = icmp eq i64 %.0.i, 0
  %19 = and i64 %.0.i, 7
  %20 = icmp ne i64 %19, 0
  %21 = or i1 %18, %20
  br i1 %21, label %MEMO_V1_SET.exit, label %22

22:                                               ; preds = %17
  tail call void @rb_gc_writebarrier(i64 noundef %1, i64 noundef %.0.i) #14
  br label %MEMO_V1_SET.exit

23:                                               ; preds = %rb_enum_values_pack.exit
  %24 = getelementptr inbounds nuw i8, ptr %8, i64 32
  %25 = load i64, ptr %24, align 8, !tbaa !22
  %26 = and i64 %25, 255
  %27 = icmp eq i64 %26, 12
  br i1 %27, label %RB_SYMBOL_P.exit.thread, label %28

28:                                               ; preds = %23
  %29 = icmp eq i64 %25, 0
  %30 = and i64 %25, 7
  %31 = icmp ne i64 %30, 0
  %32 = or i1 %29, %31
  br i1 %32, label %RB_SYMBOL_P.exit.thread14, label %RB_SYMBOL_P.exit

RB_SYMBOL_P.exit:                                 ; preds = %28
  %33 = inttoptr i64 %25 to ptr
  %34 = load i64, ptr %33, align 8, !tbaa !20
  %35 = and i64 %34, 31
  %36 = icmp eq i64 %35, 20
  br i1 %36, label %RB_SYMBOL_P.exit.thread, label %RB_SYMBOL_P.exit.thread14

RB_SYMBOL_P.exit.thread:                          ; preds = %23, %RB_SYMBOL_P.exit
  %37 = tail call i64 @rb_sym2id(i64 noundef %25) #14
  %38 = load i64, ptr %14, align 8, !tbaa !60
  %39 = call i64 @rb_funcallv_public(i64 noundef %38, i64 noundef %37, i32 noundef 1, ptr noundef nonnull %6) #14
  store i64 %39, ptr %14, align 8, !tbaa !7
  %40 = icmp eq i64 %39, 0
  %41 = and i64 %39, 7
  %42 = icmp ne i64 %41, 0
  %43 = or i1 %40, %42
  br i1 %43, label %MEMO_V1_SET.exit, label %44

44:                                               ; preds = %RB_SYMBOL_P.exit.thread
  call void @rb_gc_writebarrier(i64 noundef %1, i64 noundef %39) #14
  br label %MEMO_V1_SET.exit

RB_SYMBOL_P.exit.thread14:                        ; preds = %28, %RB_SYMBOL_P.exit
  call void @llvm.lifetime.start.p0(i64 16, ptr nonnull %7) #14
  store i64 %25, ptr %7, align 16, !tbaa !7
  %45 = getelementptr inbounds nuw i8, ptr %7, i64 8
  store i64 %.0.i, ptr %45, align 8, !tbaa !7
  %46 = call i64 @rb_f_send(i32 noundef 2, ptr noundef nonnull %7, i64 noundef %15) #14
  store i64 %46, ptr %14, align 8, !tbaa !7
  %47 = icmp eq i64 %46, 0
  %48 = and i64 %46, 7
  %49 = icmp ne i64 %48, 0
  %50 = or i1 %47, %49
  br i1 %50, label %MEMO_V1_SET.exit13, label %51

51:                                               ; preds = %RB_SYMBOL_P.exit.thread14
  call void @rb_gc_writebarrier(i64 noundef %1, i64 noundef %46) #14
  br label %MEMO_V1_SET.exit13

MEMO_V1_SET.exit13:                               ; preds = %RB_SYMBOL_P.exit.thread14, %51
  call void @llvm.lifetime.end.p0(i64 16, ptr nonnull %7) #14
  br label %MEMO_V1_SET.exit

MEMO_V1_SET.exit:                                 ; preds = %44, %RB_SYMBOL_P.exit.thread, %22, %17, %MEMO_V1_SET.exit13
  ret i64 4
}